target datalayout = "e-m:e-p270:32:32-p271:32:32-p272:64:64-i64:64-i128:128-f80:128-n8:16:32:64-S128"
target triple = "x86_64-unknown-linux-gnu"

%class.b3CpuRigidBodyPipeline = type { ptr, ptr }
%struct.b3CpuRigidBodyPipelineInternalData = type { %class.b3AlignedObjectArray, %class.b3AlignedObjectArray.0, %class.b3AlignedObjectArray.4, ptr, ptr, %struct.b3Config }
%class.b3AlignedObjectArray = type <{ %class.b3AlignedAllocator, [3 x i8], i32, i32, [4 x i8], ptr, i8, [7 x i8] }>
%class.b3AlignedAllocator = type { i8 }
%class.b3AlignedObjectArray.0 = type <{ %class.b3AlignedAllocator.1, [3 x i8], i32, i32, [4 x i8], ptr, i8, [7 x i8] }>
%class.b3AlignedAllocator.1 = type { i8 }
%class.b3AlignedObjectArray.4 = type <{ %class.b3AlignedAllocator.5, [3 x i8], i32, i32, [4 x i8], ptr, i8, [7 x i8] }>
%class.b3AlignedAllocator.5 = type { i8 }
%struct.b3Config = type { i32, i32, i32, i32, i32, i32, i32, i32, i32, i32, i32, i32 }
%class.b3AlignedObjectArray.31 = type <{ %class.b3AlignedAllocator.32, [3 x i8], i32, i32, [4 x i8], ptr, i8, [7 x i8] }>
%class.b3AlignedAllocator.32 = type { i8 }
%struct.b3SolveTask = type <{ ptr, ptr, ptr, ptr, i32, i32, i32, i8, [3 x i8], i32, [4 x i8] }>

; Function Attrs: mustprogress nounwind uwtable
define linkonce_odr dso_local void @_ZN20b3AlignedObjectArrayI20b3ContactConstraint4E4initEv(ptr noundef nonnull align 8 dereferenceable(25) %this) #4 comdat align 2 {
entry:
  %this.addr = alloca ptr, align 8
  store ptr %this, ptr %this.addr, align 8
  %this1 = load ptr, ptr %this.addr, align 8
  %m_ownsMemory = getelementptr inbounds %class.b3AlignedObjectArray.31, ptr %this1, i32 0, i32 6
  store i8 1, ptr %m_ownsMemory, align 8
  %m_data = getelementptr inbounds %class.b3AlignedObjectArray.31, ptr %this1, i32 0, i32 5
  store ptr null, ptr %m_data, align 8
  %m_size = getelementptr inbounds %class.b3AlignedObjectArray.31, ptr %this1, i32 0, i32 2
  store i32 0, ptr %m_size, align 4
  %m_capacity = getelementptr inbounds %class.b3AlignedObjectArray.31, ptr %this1, i32 0, i32 3
  store i32 0, ptr %m_capacity, align 8
  ret void
}

; Function Attrs: mustprogress nounwind uwtable
define linkonce_odr dso_local void @_ZN18b3AlignedAllocatorI20b3ContactConstraint4Lj16EEC2Ev(ptr noundef nonnull align 1 dereferenceable(1) %this) unnamed_addr #4 comdat align 2 {
entry:
  %this.addr = alloca ptr, align 8
  store ptr %this, ptr %this.addr, align 8
  ret void
}

; Function Attrs: mustprogress nounwind uwtable
define linkonce_odr dso_local void @_ZN11b3SolveTaskC2ER20b3AlignedObjectArrayI15b3RigidBodyDataERS0_I9b3InertiaERS0_I20b3ContactConstraint4EiiiPS0_IiEi(ptr noundef nonnull align 8 dereferenceable(52) %this, ptr noundef nonnull align 8 dereferenceable(25) %bodies, ptr noundef nonnull align 8 dereferenceable(25) %shapes, ptr noundef nonnull align 8 dereferenceable(25) %constraints, i32 noundef %start, i32 noundef %nConstraints, i32 noundef %maxNumBatches, ptr noundef %wgUsedBodies, i32 noundef %curWgidx) unnamed_addr #4 comdat align 2 {
entry:
  %this.addr = alloca ptr, align 8
  %bodies.addr = alloca ptr, align 8
  %shapes.addr = alloca ptr, align 8
  %constraints.addr = alloca ptr, align 8
  %start.addr = alloca i32, align 4
  %nConstraints.addr = alloca i32, align 4
  %maxNumBatches.addr = alloca i32, align 4
  %wgUsedBodies.addr = alloca ptr, align 8
  %curWgidx.addr = alloca i32, align 4
  store ptr %this, ptr %this.addr, align 8
  store ptr %bodies, ptr %bodies.addr, align 8
  store ptr %shapes, ptr %shapes.addr, align 8
  store ptr %constraints, ptr %constraints.addr, align 8
  store i32 %start, ptr %start.addr, align 4
  store i32 %nConstraints, ptr %nConstraints.addr, align 4
  store i32 %maxNumBatches, ptr %maxNumBatches.addr, align 4
  store ptr %wgUsedBodies, ptr %wgUsedBodies.addr, align 8
  store i32 %curWgidx, ptr %curWgidx.addr, align 4
  %this1 = load ptr, ptr %this.addr, align 8
  %m_bodies = getelementptr inbounds %struct.b3SolveTask, ptr %this1, i32 0, i32 0
  %0 = load ptr, ptr %bodies.addr, align 8
  store ptr %0, ptr %m_bodies, align 8
  %m_shapes = getelementptr inbounds %struct.b3SolveTask, ptr %this1, i32 0, i32 1
  %1 = load ptr, ptr %shapes.addr, align 8
  store ptr %1, ptr %m_shapes, align 8
  %m_constraints = getelementptr inbounds %struct.b3SolveTask, ptr %this1, i32 0, i32 2
  %2 = load ptr, ptr %constraints.addr, align 8
  store ptr %2, ptr %m_constraints, align 8
  %m_wgUsedBodies = getelementptr inbounds %struct.b3SolveTask, ptr %this1, i32 0, i32 3
  %3 = load ptr, ptr %wgUsedBodies.addr, align 8
  store ptr %3, ptr %m_wgUsedBodies, align 8
  %m_curWgidx = getelementptr inbounds %struct.b3SolveTask, ptr %this1, i32 0, i32 4
  %4 = load i32, ptr %curWgidx.addr, align 4
  store i32 %4, ptr %m_curWgidx, align 8
  %m_start = getelementptr inbounds %struct.b3SolveTask, ptr %this1, i32 0, i32 5
  %5 = load i32, ptr %start.addr, align 4
  store i32 %5, ptr %m_start, align 4
  %m_nConstraints = getelementptr inbounds %struct.b3SolveTask, ptr %this1, i32 0, i32 6
  %6 = load i32, ptr %nConstraints.addr, align 4
  store i32 %6, ptr %m_nConstraints, align 8
  %m_solveFriction = getelementptr inbounds %struct.b3SolveTask, ptr %this1, i32 0, i32 7
  store i8 1, ptr %m_solveFriction, align 4
  %m_maxNumBatches = getelementptr inbounds %struct.b3SolveTask, ptr %this1, i32 0, i32 9
  %7 = load i32, ptr %maxNumBatches.addr, align 4
  store i32 %7, ptr %m_maxNumBatches, align 8
  ret void
}

; Function Attrs: mustprogress nounwind uwtable
define linkonce_odr dso_local noundef i32 @_ZNK20b3AlignedObjectArrayI20b3ContactConstraint4E4sizeEv(ptr noundef nonnull align 8 dereferenceable(25) %this) #4 comdat align 2 {
entry:
  %this.addr = alloca ptr, align 8
  store ptr %this, ptr %this.addr, align 8
  %this1 = load ptr, ptr %this.addr, align 8
  %m_size = getelementptr inbounds %class.b3AlignedObjectArray.31, ptr %this1, i32 0, i32 2
  %0 = load i32, ptr %m_size, align 4
  ret i32 %0
}

; Function Attrs: mustprogress uwtable
define linkonce_odr dso_local void @_ZN20b3AlignedObjectArrayI20b3ContactConstraint4EC2Ev(ptr noundef nonnull align 8 dereferenceable(25) %this) unnamed_addr #0 comdat align 2 {
entry:
  %this.addr = alloca ptr, align 8
  store ptr %this, ptr %this.addr, align 8
  %this1 = load ptr, ptr %this.addr, align 8
  %m_allocator = getelementptr inbounds %class.b3AlignedObjectArray.31, ptr %this1, i32 0, i32 0
  call void @_ZN18b3AlignedAllocatorI20b3ContactConstraint4Lj16EEC2Ev(ptr noundef nonnull align 1 dereferenceable(1) %m_allocator)
  call void @_ZN20b3AlignedObjectArrayI20b3ContactConstraint4E4initEv(ptr noundef nonnull align 8 dereferenceable(25) %this1)
  ret void
}

; Function Attrs: mustprogress uwtable
define dso_local void @_ZN22b3CpuRigidBodyPipeline23solveContactConstraintsEv(ptr noundef nonnull align 8 dereferenceable(16) %this) unnamed_addr #0 align 2 personality ptr @__gxx_personality_v0 {
entry:
  %this.addr = alloca ptr, align 8
  %m_nIterations = alloca i32, align 4
  %contactConstraints = alloca %class.b3AlignedObjectArray.31, align 8
  %n = alloca i32, align 4
  %exn.slot = alloca ptr, align 8
  %ehselector.slot = alloca i32, align 4
  %maxNumBatches = alloca i32, align 4
  %iter = alloca i32, align 4
  %task = alloca %struct.b3SolveTask, align 8
  %iter5 = alloca i32, align 4
  %task9 = alloca %struct.b3SolveTask, align 8
  store ptr %this, ptr %this.addr, align 8
  %this1 = load ptr, ptr %this.addr, align 8
  store i32 4, ptr %m_nIterations, align 4
  call void @_ZN20b3AlignedObjectArrayI20b3ContactConstraint4EC2Ev(ptr noundef nonnull align 8 dereferenceable(25) %contactConstraints)
  %call = invoke noundef i32 @_ZNK20b3AlignedObjectArrayI20b3ContactConstraint4E4sizeEv(ptr noundef nonnull align 8 dereferenceable(25) %contactConstraints)
          to label %invoke.cont unwind label %lpad

invoke.cont:                                      ; preds = %entry
  store i32 %call, ptr %n, align 4
  store i32 250, ptr %maxNumBatches, align 4
  store i32 0, ptr %iter, align 4
  br label %for.cond

for.cond:                                         ; preds = %for.inc, %invoke.cont
  %0 = load i32, ptr %iter, align 4
  %1 = load i32, ptr %m_nIterations, align 4
  %cmp = icmp slt i32 %0, %1
  br i1 %cmp, label %for.body, label %for.end

for.body:                                         ; preds = %for.cond
  %m_data = getelementptr inbounds %class.b3CpuRigidBodyPipeline, ptr %this1, i32 0, i32 1
  %2 = load ptr, ptr %m_data, align 8
  %m_rigidBodies = getelementptr inbounds %struct.b3CpuRigidBodyPipelineInternalData, ptr %2, i32 0, i32 0
  %m_data2 = getelementptr inbounds %class.b3CpuRigidBodyPipeline, ptr %this1, i32 0, i32 1
  %3 = load ptr, ptr %m_data2, align 8
  %m_inertias = getelementptr inbounds %struct.b3CpuRigidBodyPipelineInternalData, ptr %3, i32 0, i32 1
  %4 = load i32, ptr %n, align 4
  %5 = load i32, ptr %maxNumBatches, align 4
  invoke void @_ZN11b3SolveTaskC2ER20b3AlignedObjectArrayI15b3RigidBodyDataERS0_I9b3InertiaERS0_I20b3ContactConstraint4EiiiPS0_IiEi(ptr noundef nonnull align 8 dereferenceable(52) %task, ptr noundef nonnull align 8 dereferenceable(25) %m_rigidBodies, ptr noundef nonnull align 8 dereferenceable(25) %m_inertias, ptr noundef nonnull align 8 dereferenceable(25) %contactConstraints, i32 noundef 0, i32 noundef %4, i32 noundef %5, ptr noundef null, i32 noundef 0)
          to label %invoke.cont3 unwind label %lpad

invoke.cont3:                                     ; preds = %for.body
  %m_solveFriction = getelementptr inbounds %struct.b3SolveTask, ptr %task, i32 0, i32 7
  store i8 0, ptr %m_solveFriction, align 4
  invoke void @_ZN11b3SolveTask3runEi(ptr noundef nonnull align 8 dereferenceable(52) %task, i32 noundef 0)
          to label %invoke.cont4 unwind label %lpad

invoke.cont4:                                     ; preds = %invoke.cont3
  br label %for.inc

for.inc:                                          ; preds = %invoke.cont4
  %6 = load i32, ptr %iter, align 4
  %inc = add nsw i32 %6, 1
  store i32 %inc, ptr %iter, align 4
  br label %for.cond, !llvm.loop !7

lpad:                                             ; preds = %invoke.cont14, %for.body8, %invoke.cont3, %for.body, %entry
  %7 = landingpad { ptr, i32 }
          cleanup
  %8 = extractvalue { ptr, i32 } %7, 0
  store ptr %8, ptr %exn.slot, align 8
  %9 = extractvalue { ptr, i32 } %7, 1
  store i32 %9, ptr %ehselector.slot, align 4
  call void @_ZN20b3AlignedObjectArrayI20b3ContactConstraint4ED2Ev(ptr noundef nonnull align 8 dereferenceable(25) %contactConstraints) #13
  br label %eh.resume

for.end:                                          ; preds = %for.cond
  store i32 0, ptr %iter5, align 4
  br label %for.cond6

for.cond6:                                        ; preds = %for.inc17, %for.end
  %10 = load i32, ptr %iter5, align 4
  %11 = load i32, ptr %m_nIterations, align 4
  %cmp7 = icmp slt i32 %10, %11
  br i1 %cmp7, label %for.body8, label %for.end19

for.body8:                                        ; preds = %for.cond6
  %m_data10 = getelementptr inbounds %class.b3CpuRigidBodyPipeline, ptr %this1, i32 0, i32 1
  %12 = load ptr, ptr %m_data10, align 8
  %m_rigidBodies11 = getelementptr inbounds %struct.b3CpuRigidBodyPipelineInternalData, ptr %12, i32 0, i32 0
  %m_data12 = getelementptr inbounds %class.b3CpuRigidBodyPipeline, ptr %this1, i32 0, i32 1
  %13 = load ptr, ptr %m_data12, align 8
  %m_inertias13 = getelementptr inbounds %struct.b3CpuRigidBodyPipelineInternalData, ptr %13, i32 0, i32 1
  %14 = load i32, ptr %n, align 4
  %15 = load i32, ptr %maxNumBatches, align 4
  invoke void @_ZN11b3SolveTaskC2ER20b3AlignedObjectArrayI15b3RigidBodyDataERS0_I9b3InertiaERS0_I20b3ContactConstraint4EiiiPS0_IiEi(ptr noundef nonnull align 8 dereferenceable(52) %task9, ptr noundef nonnull align 8 dereferenceable(25) %m_rigidBodies11, ptr noundef nonnull align 8 dereferenceable(25) %m_inertias13, ptr noundef nonnull align 8 dereferenceable(25) %contactConstraints, i32 noundef 0, i32 noundef %14, i32 noundef %15, ptr noundef null, i32 noundef 0)
          to label %invoke.cont14 unwind label %lpad

invoke.cont14:                                    ; preds = %for.body8
  %m_solveFriction15 = getelementptr inbounds %struct.b3SolveTask, ptr %task9, i32 0, i32 7
  store i8 1, ptr %m_solveFriction15, align 4
  invoke void @_ZN11b3SolveTask3runEi(ptr noundef nonnull align 8 dereferenceable(52) %task9, i32 noundef 0)
          to label %invoke.cont16 unwind label %lpad

invoke.cont16:                                    ; preds = %invoke.cont14
  br label %for.inc17

for.inc17:                                        ; preds = %invoke.cont16
  %16 = load i32, ptr %iter5, align 4
  %inc18 = add nsw i32 %16, 1
  store i32 %inc18, ptr %iter5, align 4
  br label %for.cond6, !llvm.loop !8

for.end19:                                        ; preds = %for.cond6
  call void @_ZN20b3AlignedObjectArrayI20b3ContactConstraint4ED2Ev(ptr noundef nonnull align 8 dereferenceable(25) %contactConstraints) #13
  ret void

eh.resume:                                        ; preds = %lpad
  %exn = load ptr, ptr %exn.slot, align 8
  %sel = load i32, ptr %ehselector.slot, align 4
  %lpad.val = insertvalue { ptr, i32 } poison, ptr %exn, 0
  %lpad.val20 = insertvalue { ptr, i32 } %lpad.val, i32 %sel, 1
  resume { ptr, i32 } %lpad.val20
}