; Function Attrs: mustprogress uwtable
define dso_local void @_ZN22b3CpuRigidBodyPipeline23solveContactConstraintsEv(ptr nocapture noundef nonnull readonly align 8 dereferenceable(16) %this) unnamed_addr #0 align 2 personality ptr @__gxx_personality_v0 {
entry:
  %contactConstraints = alloca %class.b3AlignedObjectArray.31, align 8
  %task = alloca %struct.b3SolveTask, align 8
  %task9 = alloca %struct.b3SolveTask, align 8
  %m_ownsMemory.i.i = getelementptr inbounds i8, ptr %contactConstraints, i64 24
  store i8 1, ptr %m_ownsMemory.i.i, align 8
  %m_data.i.i = getelementptr inbounds i8, ptr %contactConstraints, i64 16
  store ptr null, ptr %m_data.i.i, align 8
  %m_size.i.i = getelementptr inbounds i8, ptr %contactConstraints, i64 4
  store i32 0, ptr %m_size.i.i, align 4
  %m_capacity.i.i = getelementptr inbounds i8, ptr %contactConstraints, i64 8
  store i32 0, ptr %m_capacity.i.i, align 8
  %m_data = getelementptr inbounds i8, ptr %this, i64 8
  %m_shapes.i = getelementptr inbounds i8, ptr %task, i64 8
  %m_constraints.i = getelementptr inbounds i8, ptr %task, i64 16
  %m_wgUsedBodies.i = getelementptr inbounds i8, ptr %task, i64 24
  %m_solveFriction.i = getelementptr inbounds i8, ptr %task, i64 44
  %m_maxNumBatches.i = getelementptr inbounds i8, ptr %task, i64 48
  br label %for.body

for.cond6.preheader:                              ; preds = %for.inc
  %m_shapes.i6 = getelementptr inbounds i8, ptr %task9, i64 8
  %m_constraints.i7 = getelementptr inbounds i8, ptr %task9, i64 16
  %m_wgUsedBodies.i8 = getelementptr inbounds i8, ptr %task9, i64 24
  %m_solveFriction.i12 = getelementptr inbounds i8, ptr %task9, i64 44
  %m_maxNumBatches.i13 = getelementptr inbounds i8, ptr %task9, i64 48
  br label %for.body8

for.body:                                         ; preds = %entry, %for.inc
  %iter.016 = phi i32 [ 0, %entry ], [ %inc, %for.inc ]
  %0 = load ptr, ptr %m_data, align 8
  %m_inertias = getelementptr inbounds i8, ptr %0, i64 32
  store ptr %0, ptr %task, align 8
  store ptr %m_inertias, ptr %m_shapes.i, align 8
  store ptr %contactConstraints, ptr %m_constraints.i, align 8
  call void @llvm.memset.p0.i64(ptr noundef nonnull align 8 dereferenceable(20) %m_wgUsedBodies.i, i8 0, i64 20, i1 false)
  store i32 250, ptr %m_maxNumBatches.i, align 8
  store i8 0, ptr %m_solveFriction.i, align 4
  invoke void @_ZN11b3SolveTask3runEi(ptr noundef nonnull align 8 dereferenceable(52) %task, i32 noundef 0)
          to label %for.inc unwind label %lpad.loopexit.split-lp

for.inc:                                          ; preds = %for.body
  %inc = add nuw nsw i32 %iter.016, 1
  %exitcond.not = icmp eq i32 %inc, 4
  br i1 %exitcond.not, label %for.cond6.preheader, label %for.body, !llvm.loop !7

lpad.loopexit:                                    ; preds = %for.body8
  %lpad.loopexit14 = landingpad { ptr, i32 }
          cleanup
  br label %lpad

lpad.loopexit.split-lp:                           ; preds = %for.body
  %lpad.loopexit.split-lp15 = landingpad { ptr, i32 }
          cleanup
  br label %lpad

lpad:                                             ; preds = %lpad.loopexit.split-lp, %lpad.loopexit
  %lpad.phi = phi { ptr, i32 } [ %lpad.loopexit14, %lpad.loopexit ], [ %lpad.loopexit.split-lp15, %lpad.loopexit.split-lp ]
  call void @_ZN20b3AlignedObjectArrayI20b3ContactConstraint4ED2Ev(ptr noundef nonnull align 8 dereferenceable(25) %contactConstraints) #16
  resume { ptr, i32 } %lpad.phi

for.body8:                                        ; preds = %for.cond6.preheader, %for.inc17
  %iter5.017 = phi i32 [ 0, %for.cond6.preheader ], [ %inc18, %for.inc17 ]
  %1 = load ptr, ptr %m_data, align 8
  %m_inertias13 = getelementptr inbounds i8, ptr %1, i64 32
  store ptr %1, ptr %task9, align 8
  store ptr %m_inertias13, ptr %m_shapes.i6, align 8
  store ptr %contactConstraints, ptr %m_constraints.i7, align 8
  call void @llvm.memset.p0.i64(ptr noundef nonnull align 8 dereferenceable(20) %m_wgUsedBodies.i8, i8 0, i64 20, i1 false)
  store i32 250, ptr %m_maxNumBatches.i13, align 8
  store i8 1, ptr %m_solveFriction.i12, align 4
  invoke void @_ZN11b3SolveTask3runEi(ptr noundef nonnull align 8 dereferenceable(52) %task9, i32 noundef 0)
          to label %for.inc17 unwind label %lpad.loopexit

for.inc17:                                        ; preds = %for.body8
  %inc18 = add nuw nsw i32 %iter5.017, 1
  %exitcond18.not = icmp eq i32 %inc18, 4
  br i1 %exitcond18.not, label %for.end19, label %for.body8, !llvm.loop !8

for.end19:                                        ; preds = %for.inc17
  %2 = load ptr, ptr %m_data.i.i, align 8
  %tobool.not.i.i.i = icmp eq ptr %2, null
  br i1 %tobool.not.i.i.i, label %_ZN20b3AlignedObjectArrayI20b3ContactConstraint4ED2Ev.exit, label %if.then.i.i.i

if.then.i.i.i:                                    ; preds = %for.end19
  %3 = load i8, ptr %m_ownsMemory.i.i, align 8
  %4 = and i8 %3, 1
  %tobool2.not.i.i.i = icmp eq i8 %4, 0
  br i1 %tobool2.not.i.i.i, label %_ZN20b3AlignedObjectArrayI20b3ContactConstraint4ED2Ev.exit, label %if.then3.i.i.i

if.then3.i.i.i:                                   ; preds = %if.then.i.i.i
  invoke void @_Z21b3AlignedFreeInternalPv(ptr noundef nonnull %2)
          to label %_ZN20b3AlignedObjectArrayI20b3ContactConstraint4ED2Ev.exit unwind label %terminate.lpad.i

terminate.lpad.i:                                 ; preds = %if.then3.i.i.i
  %5 = landingpad { ptr, i32 }
          catch ptr null
  %6 = extractvalue { ptr, i32 } %5, 0
  call void @__clang_call_terminate(ptr %6) #18
  unreachable

_ZN20b3AlignedObjectArrayI20b3ContactConstraint4ED2Ev.exit: ; preds = %for.end19, %if.then.i.i.i, %if.then3.i.i.i
  ret void
}